target datalayout = "e-m:e-p270:32:32-p271:32:32-p272:64:64-i64:64-i128:128-f80:128-n8:16:32:64-S128"
target triple = "x86_64-pc-linux-gnu"

%struct.anon = type { i32, ptr, ptr, i32, i32, i32, i32, i32, i32, i32, i32, i32, ptr, ptr, ptr, ptr, ptr, ptr, ptr, ptr, [1 x %struct.__jmp_buf_tag], i32, ptr, ptr }
%struct.__jmp_buf_tag = type { [8 x i64], i32, %struct.__sigset_t }
%struct.__sigset_t = type { [16 x i64] }
%struct.clar_report = type { ptr, i32, ptr, i32, i64, double, ptr, ptr, ptr }
%struct.clar_error = type { ptr, ptr, i64, ptr, ptr, ptr }

@_clar = internal global %struct.anon zeroinitializer, align 8
@.str.5 = private unnamed_addr constant [27 x i8] c"Failed to allocate error.\0A\00", align 1
@.str.6 = private unnamed_addr constant [33 x i8] c"Failed to allocate description.\0A\00", align 1
@.str.139 = private unnamed_addr constant [52 x i8] c"Fatal error: a cleanup method raised an exception.\0A\00", align 1

; Function Attrs: nounwind uwtable
define internal void @abort_test() #0 {
  %1 = load i32, ptr getelementptr inbounds nuw (%struct.anon, ptr @_clar, i32 0, i32 21), align 8, !tbaa !92
  %2 = icmp ne i32 %1, 0
  br i1 %2, label %5, label %3

3:                                                ; preds = %0
  call void (ptr, ...) @clar_print_onabort(ptr noundef @.str.139)
  %4 = load ptr, ptr getelementptr inbounds nuw (%struct.anon, ptr @_clar, i32 0, i32 17), align 8, !tbaa !76
  call void @clar_report_errors(ptr noundef %4)
  call void @exit(i32 noundef -1) #16
  unreachable

5:                                                ; preds = %0
  br label %6

6:                                                ; preds = %5
  %7 = load ptr, ptr getelementptr inbounds nuw (%struct.anon, ptr @_clar, i32 0, i32 22), align 8, !tbaa !8
  %8 = icmp ne ptr %7, null
  br i1 %8, label %9, label %14

9:                                                ; preds = %6
  %10 = load ptr, ptr getelementptr inbounds nuw (%struct.anon, ptr @_clar, i32 0, i32 22), align 8, !tbaa !8
  %11 = load ptr, ptr getelementptr inbounds nuw (%struct.anon, ptr @_clar, i32 0, i32 2), align 8, !tbaa !61
  %12 = load ptr, ptr getelementptr inbounds nuw (%struct.anon, ptr @_clar, i32 0, i32 1), align 8, !tbaa !62
  %13 = load ptr, ptr getelementptr inbounds nuw (%struct.anon, ptr @_clar, i32 0, i32 23), align 8, !tbaa !15
  call void %10(i32 noundef 6, ptr noundef %11, ptr noundef %12, ptr noundef %13)
  br label %14

14:                                               ; preds = %9, %6
  br label %15

15:                                               ; preds = %14
  call void @longjmp(ptr noundef getelementptr inbounds nuw (%struct.anon, ptr @_clar, i32 0, i32 20), i32 noundef -1) #16
  unreachable
}

; Function Attrs: nounwind uwtable
define dso_local void @clar__fail(ptr noundef %0, ptr noundef %1, i64 noundef %2, ptr noundef %3, ptr noundef %4, i32 noundef %5) #0 {
  %7 = alloca ptr, align 8
  %8 = alloca ptr, align 8
  %9 = alloca i64, align 8
  %10 = alloca ptr, align 8
  %11 = alloca ptr, align 8
  %12 = alloca i32, align 4
  %13 = alloca ptr, align 8
  store ptr %0, ptr %7, align 8, !tbaa !20
  store ptr %1, ptr %8, align 8, !tbaa !20
  store i64 %2, ptr %9, align 8, !tbaa !26
  store ptr %3, ptr %10, align 8, !tbaa !20
  store ptr %4, ptr %11, align 8, !tbaa !20
  store i32 %5, ptr %12, align 4, !tbaa !16
  call void @llvm.lifetime.start.p0(i64 8, ptr %13) #13
  %14 = call noalias ptr @calloc(i64 noundef 1, i64 noundef 48) #15
  store ptr %14, ptr %13, align 8, !tbaa !82
  %15 = icmp eq ptr %14, null
  br i1 %15, label %16, label %17

16:                                               ; preds = %6
  call void (ptr, ...) @clar_abort(ptr noundef @.str.5)
  br label %17

17:                                               ; preds = %16, %6
  %18 = load ptr, ptr getelementptr inbounds nuw (%struct.anon, ptr @_clar, i32 0, i32 17), align 8, !tbaa !76
  %19 = getelementptr inbounds nuw %struct.clar_report, ptr %18, i32 0, i32 6
  %20 = load ptr, ptr %19, align 8, !tbaa !81
  %21 = icmp eq ptr %20, null
  br i1 %21, label %22, label %26

22:                                               ; preds = %17
  %23 = load ptr, ptr %13, align 8, !tbaa !82
  %24 = load ptr, ptr getelementptr inbounds nuw (%struct.anon, ptr @_clar, i32 0, i32 17), align 8, !tbaa !76
  %25 = getelementptr inbounds nuw %struct.clar_report, ptr %24, i32 0, i32 6
  store ptr %23, ptr %25, align 8, !tbaa !81
  br label %26

26:                                               ; preds = %22, %17
  %27 = load ptr, ptr getelementptr inbounds nuw (%struct.anon, ptr @_clar, i32 0, i32 17), align 8, !tbaa !76
  %28 = getelementptr inbounds nuw %struct.clar_report, ptr %27, i32 0, i32 7
  %29 = load ptr, ptr %28, align 8, !tbaa !93
  %30 = icmp ne ptr %29, null
  br i1 %30, label %31, label %37

31:                                               ; preds = %26
  %32 = load ptr, ptr %13, align 8, !tbaa !82
  %33 = load ptr, ptr getelementptr inbounds nuw (%struct.anon, ptr @_clar, i32 0, i32 17), align 8, !tbaa !76
  %34 = getelementptr inbounds nuw %struct.clar_report, ptr %33, i32 0, i32 7
  %35 = load ptr, ptr %34, align 8, !tbaa !93
  %36 = getelementptr inbounds nuw %struct.clar_error, ptr %35, i32 0, i32 5
  store ptr %32, ptr %36, align 8, !tbaa !88
  br label %37

37:                                               ; preds = %31, %26
  %38 = load ptr, ptr %13, align 8, !tbaa !82
  %39 = load ptr, ptr getelementptr inbounds nuw (%struct.anon, ptr @_clar, i32 0, i32 17), align 8, !tbaa !76
  %40 = getelementptr inbounds nuw %struct.clar_report, ptr %39, i32 0, i32 7
  store ptr %38, ptr %40, align 8, !tbaa !93
  %41 = load ptr, ptr %7, align 8, !tbaa !20
  %42 = load ptr, ptr %13, align 8, !tbaa !82
  %43 = getelementptr inbounds nuw %struct.clar_error, ptr %42, i32 0, i32 0
  store ptr %41, ptr %43, align 8, !tbaa !94
  %44 = load ptr, ptr %8, align 8, !tbaa !20
  %45 = load ptr, ptr %13, align 8, !tbaa !82
  %46 = getelementptr inbounds nuw %struct.clar_error, ptr %45, i32 0, i32 1
  store ptr %44, ptr %46, align 8, !tbaa !95
  %47 = load i64, ptr %9, align 8, !tbaa !26
  %48 = load ptr, ptr %13, align 8, !tbaa !82
  %49 = getelementptr inbounds nuw %struct.clar_error, ptr %48, i32 0, i32 2
  store i64 %47, ptr %49, align 8, !tbaa !96
  %50 = load ptr, ptr %10, align 8, !tbaa !20
  %51 = load ptr, ptr %13, align 8, !tbaa !82
  %52 = getelementptr inbounds nuw %struct.clar_error, ptr %51, i32 0, i32 3
  store ptr %50, ptr %52, align 8, !tbaa !85
  %53 = load ptr, ptr %11, align 8, !tbaa !20
  %54 = icmp ne ptr %53, null
  br i1 %54, label %55, label %62

55:                                               ; preds = %37
  %56 = load ptr, ptr %11, align 8, !tbaa !20
  %57 = call noalias ptr @strdup(ptr noundef %56) #13
  %58 = load ptr, ptr %13, align 8, !tbaa !82
  %59 = getelementptr inbounds nuw %struct.clar_error, ptr %58, i32 0, i32 4
  store ptr %57, ptr %59, align 8, !tbaa !87
  %60 = icmp eq ptr %57, null
  br i1 %60, label %61, label %62

61:                                               ; preds = %55
  call void (ptr, ...) @clar_abort(ptr noundef @.str.6)
  br label %62

62:                                               ; preds = %61, %55, %37
  %63 = load i32, ptr getelementptr inbounds nuw (%struct.anon, ptr @_clar, i32 0, i32 4), align 4, !tbaa !55
  %64 = add nsw i32 %63, 1
  store i32 %64, ptr getelementptr inbounds nuw (%struct.anon, ptr @_clar, i32 0, i32 4), align 4, !tbaa !55
  %65 = load ptr, ptr getelementptr inbounds nuw (%struct.anon, ptr @_clar, i32 0, i32 17), align 8, !tbaa !76
  %66 = getelementptr inbounds nuw %struct.clar_report, ptr %65, i32 0, i32 3
  store i32 1, ptr %66, align 8, !tbaa !74
  %67 = load i32, ptr %12, align 4, !tbaa !16
  %68 = icmp ne i32 %67, 0
  br i1 %68, label %69, label %70

69:                                               ; preds = %62
  call void @abort_test()
  br label %70

70:                                               ; preds = %69, %62
  call void @llvm.lifetime.end.p0(i64 8, ptr %13) #13
  ret void
}