; Function Attrs: nounwind uwtable
define dso_local void @clar__fail(ptr noundef %0, ptr noundef %1, i64 noundef %2, ptr noundef %3, ptr noundef readonly %4, i32 noundef %5) local_unnamed_addr #1 {
  %7 = tail call noalias dereferenceable_or_null(48) ptr @calloc(i64 noundef 1, i64 noundef 48) #29
  %8 = icmp eq ptr %7, null
  br i1 %8, label %9, label %10

9:                                                ; preds = %6
  tail call void (ptr, ...) @clar_abort(ptr noundef nonnull @.str.5)
  unreachable

10:                                               ; preds = %6
  %11 = load ptr, ptr getelementptr inbounds nuw (i8, ptr @_clar, i64 104), align 8, !tbaa !69
  %12 = getelementptr inbounds nuw i8, ptr %11, i64 48
  %13 = load ptr, ptr %12, align 8, !tbaa !82
  %14 = icmp eq ptr %13, null
  br i1 %14, label %15, label %16

15:                                               ; preds = %10
  store ptr %7, ptr %12, align 8, !tbaa !82
  br label %16

16:                                               ; preds = %15, %10
  %17 = getelementptr inbounds nuw i8, ptr %11, i64 56
  %18 = load ptr, ptr %17, align 8, !tbaa !92
  %.not = icmp eq ptr %18, null
  br i1 %.not, label %21, label %19

19:                                               ; preds = %16
  %20 = getelementptr inbounds nuw i8, ptr %18, i64 40
  store ptr %7, ptr %20, align 8, !tbaa !86
  br label %21

21:                                               ; preds = %19, %16
  store ptr %7, ptr %17, align 8, !tbaa !92
  store ptr %0, ptr %7, align 8, !tbaa !74
  %22 = getelementptr inbounds nuw i8, ptr %7, i64 8
  store ptr %1, ptr %22, align 8, !tbaa !93
  %23 = getelementptr inbounds nuw i8, ptr %7, i64 16
  store i64 %2, ptr %23, align 8, !tbaa !76
  %24 = getelementptr inbounds nuw i8, ptr %7, i64 24
  store ptr %3, ptr %24, align 8, !tbaa !77
  %.not15 = icmp eq ptr %4, null
  br i1 %.not15, label %30, label %25

25:                                               ; preds = %21
  %26 = tail call noalias ptr @strdup(ptr noundef nonnull %4) #31
  %27 = getelementptr inbounds nuw i8, ptr %7, i64 32
  store ptr %26, ptr %27, align 8, !tbaa !78
  %28 = icmp eq ptr %26, null
  br i1 %28, label %29, label %30

29:                                               ; preds = %25
  tail call void (ptr, ...) @clar_abort(ptr noundef nonnull @.str.6)
  unreachable

30:                                               ; preds = %25, %21
  %31 = load i32, ptr getelementptr inbounds nuw (i8, ptr @_clar, i64 28), align 4, !tbaa !52
  %32 = add nsw i32 %31, 1
  store i32 %32, ptr getelementptr inbounds nuw (i8, ptr @_clar, i64 28), align 4, !tbaa !52
  %33 = getelementptr inbounds nuw i8, ptr %11, i64 24
  store i32 1, ptr %33, align 8, !tbaa !67
  %.not16 = icmp eq i32 %5, 0
  br i1 %.not16, label %45, label %34

34:                                               ; preds = %30
  %35 = load i32, ptr getelementptr inbounds nuw (i8, ptr @_clar, i64 328), align 8, !tbaa !91
  %.not.i = icmp eq i32 %35, 0
  br i1 %.not.i, label %36, label %38

36:                                               ; preds = %34
  tail call void (ptr, ...) @clar_print_onabort(ptr nonnull poison)
  %37 = load ptr, ptr getelementptr inbounds nuw (i8, ptr @_clar, i64 104), align 8, !tbaa !69
  tail call fastcc void @clar_report_errors(ptr noundef %37)
  tail call void @exit(i32 noundef -1) #34
  unreachable

38:                                               ; preds = %34
  %39 = load ptr, ptr getelementptr inbounds nuw (i8, ptr @_clar, i64 336), align 8, !tbaa !4
  %.not1.i = icmp eq ptr %39, null
  br i1 %.not1.i, label %44, label %40

40:                                               ; preds = %38
  %41 = load ptr, ptr getelementptr inbounds nuw (i8, ptr @_clar, i64 16), align 8, !tbaa !55
  %42 = load ptr, ptr getelementptr inbounds nuw (i8, ptr @_clar, i64 8), align 8, !tbaa !56
  %43 = load ptr, ptr getelementptr inbounds nuw (i8, ptr @_clar, i64 344), align 8, !tbaa !14
  tail call void %39(i32 noundef 6, ptr noundef %41, ptr noundef %42, ptr noundef %43) #31
  br label %44

44:                                               ; preds = %40, %38
  tail call void @longjmp(ptr noundef nonnull getelementptr inbounds nuw (i8, ptr @_clar, i64 128), i32 noundef -1) #30
  unreachable

45:                                               ; preds = %30
  ret void
}